; ModuleID = '17/1245.c'
source_filename = "17/1245.c"
target datalayout = "e-m:e-p270:32:32-p271:32:32-p272:64:64-i64:64-f80:128-n8:16:32:64-S128"
target triple = "x86_64-pc-linux-gnu"

@.str = private unnamed_addr constant [3 x i8] c"%d\00", align 1
@.str.1 = private unnamed_addr constant [3 x i8] c"%s\00", align 1

; Function Attrs: noinline nounwind uwtable
define dso_local i32 @main() #0 {
  %1 = alloca i32, align 4
  %2 = alloca [200 x i8], align 16
  %3 = alloca i32, align 4
  %4 = alloca i32, align 4
  %5 = alloca i32, align 4
  %6 = alloca i32, align 4
  %7 = alloca i32, align 4
  store i32 0, i32* %1, align 4
  %8 = call i32 (i8*, ...) @__isoc99_scanf(i8* getelementptr inbounds ([3 x i8], [3 x i8]* @.str, i64 0, i64 0), i32* %3)
  store i32 1, i32* %4, align 4
  br label %9

9:                                                ; preds = %113, %0
  %10 = load i32, i32* %4, align 4
  %11 = load i32, i32* %3, align 4
  %12 = icmp sle i32 %10, %11
  br i1 %12, label %13, label %116

13:                                               ; preds = %9
  %14 = getelementptr inbounds [200 x i8], [200 x i8]* %2, i64 0, i64 0
  %15 = call i32 (i8*, ...) @__isoc99_scanf(i8* getelementptr inbounds ([3 x i8], [3 x i8]* @.str.1, i64 0, i64 0), i8* %14)
  %16 = getelementptr inbounds [200 x i8], [200 x i8]* %2, i64 0, i64 0
  %17 = call i32 @puts(i8* %16)
  %18 = getelementptr inbounds [200 x i8], [200 x i8]* %2, i64 0, i64 0
  %19 = call i64 @strlen(i8* %18) #3
  %20 = trunc i64 %19 to i32
  store i32 %20, i32* %6, align 4
  store i32 0, i32* %5, align 4
  br label %21

21:                                               ; preds = %75, %13
  %22 = load i32, i32* %5, align 4
  %23 = load i32, i32* %6, align 4
  %24 = icmp slt i32 %22, %23
  br i1 %24, label %25, label %78

25:                                               ; preds = %21
  %26 = load i32, i32* %5, align 4
  %27 = sext i32 %26 to i64
  %28 = getelementptr inbounds [200 x i8], [200 x i8]* %2, i64 0, i64 %27
  %29 = load i8, i8* %28, align 1
  %30 = sext i8 %29 to i32
  %31 = icmp eq i32 %30, 41
  br i1 %31, label %32, label %56

32:                                               ; preds = %25
  %33 = load i32, i32* %5, align 4
  store i32 %33, i32* %7, align 4
  br label %34

34:                                               ; preds = %52, %32
  %35 = load i32, i32* %7, align 4
  %36 = icmp sge i32 %35, 0
  br i1 %36, label %37, label %55

37:                                               ; preds = %34
  %38 = load i32, i32* %7, align 4
  %39 = sext i32 %38 to i64
  %40 = getelementptr inbounds [200 x i8], [200 x i8]* %2, i64 0, i64 %39
  %41 = load i8, i8* %40, align 1
  %42 = sext i8 %41 to i32
  %43 = icmp eq i32 %42, 40
  br i1 %43, label %44, label %51

44:                                               ; preds = %37
  %45 = load i32, i32* %7, align 4
  %46 = sext i32 %45 to i64
  %47 = getelementptr inbounds [200 x i8], [200 x i8]* %2, i64 0, i64 %46
  store i8 32, i8* %47, align 1
  %48 = load i32, i32* %5, align 4
  %49 = sext i32 %48 to i64
  %50 = getelementptr inbounds [200 x i8], [200 x i8]* %2, i64 0, i64 %49
  store i8 32, i8* %50, align 1
  br label %55

51:                                               ; preds = %37
  br label %52

52:                                               ; preds = %51
  %53 = load i32, i32* %7, align 4
  %54 = add nsw i32 %53, -1
  store i32 %54, i32* %7, align 4
  br label %34

55:                                               ; preds = %44, %34
  br label %56

56:                                               ; preds = %55, %25
  %57 = load i32, i32* %5, align 4
  %58 = sext i32 %57 to i64
  %59 = getelementptr inbounds [200 x i8], [200 x i8]* %2, i64 0, i64 %58
  %60 = load i8, i8* %59, align 1
  %61 = sext i8 %60 to i32
  %62 = icmp ne i32 %61, 40
  br i1 %62, label %63, label %74

63:                                               ; preds = %56
  %64 = load i32, i32* %5, align 4
  %65 = sext i32 %64 to i64
  %66 = getelementptr inbounds [200 x i8], [200 x i8]* %2, i64 0, i64 %65
  %67 = load i8, i8* %66, align 1
  %68 = sext i8 %67 to i32
  %69 = icmp ne i32 %68, 41
  br i1 %69, label %70, label %74

70:                                               ; preds = %63
  %71 = load i32, i32* %5, align 4
  %72 = sext i32 %71 to i64
  %73 = getelementptr inbounds [200 x i8], [200 x i8]* %2, i64 0, i64 %72
  store i8 32, i8* %73, align 1
  br label %74

74:                                               ; preds = %70, %63, %56
  br label %75

75:                                               ; preds = %74
  %76 = load i32, i32* %5, align 4
  %77 = add nsw i32 %76, 1
  store i32 %77, i32* %5, align 4
  br label %21

78:                                               ; preds = %21
  store i32 0, i32* %5, align 4
  br label %79

79:                                               ; preds = %107, %78
  %80 = load i32, i32* %5, align 4
  %81 = load i32, i32* %6, align 4
  %82 = icmp slt i32 %80, %81
  br i1 %82, label %83, label %110

83:                                               ; preds = %79
  %84 = load i32, i32* %5, align 4
  %85 = sext i32 %84 to i64
  %86 = getelementptr inbounds [200 x i8], [200 x i8]* %2, i64 0, i64 %85
  %87 = load i8, i8* %86, align 1
  %88 = sext i8 %87 to i32
  %89 = icmp eq i32 %88, 40
  br i1 %89, label %90, label %94

90:                                               ; preds = %83
  %91 = load i32, i32* %5, align 4
  %92 = sext i32 %91 to i64
  %93 = getelementptr inbounds [200 x i8], [200 x i8]* %2, i64 0, i64 %92
  store i8 36, i8* %93, align 1
  br label %106

94:                                               ; preds = %83
  %95 = load i32, i32* %5, align 4
  %96 = sext i32 %95 to i64
  %97 = getelementptr inbounds [200 x i8], [200 x i8]* %2, i64 0, i64 %96
  %98 = load i8, i8* %97, align 1
  %99 = sext i8 %98 to i32
  %100 = icmp eq i32 %99, 41
  br i1 %100, label %101, label %105

101:                                              ; preds = %94
  %102 = load i32, i32* %5, align 4
  %103 = sext i32 %102 to i64
  %104 = getelementptr inbounds [200 x i8], [200 x i8]* %2, i64 0, i64 %103
  store i8 63, i8* %104, align 1
  br label %105

105:                                              ; preds = %101, %94
  br label %106

106:                                              ; preds = %105, %90
  br label %107

107:                                              ; preds = %106
  %108 = load i32, i32* %5, align 4
  %109 = add nsw i32 %108, 1
  store i32 %109, i32* %5, align 4
  br label %79

110:                                              ; preds = %79
  %111 = getelementptr inbounds [200 x i8], [200 x i8]* %2, i64 0, i64 0
  %112 = call i32 @puts(i8* %111)
  br label %113

113:                                              ; preds = %110
  %114 = load i32, i32* %4, align 4
  %115 = add nsw i32 %114, 1
  store i32 %115, i32* %4, align 4
  br label %9

116:                                              ; preds = %9
  ret i32 0
}

declare dso_local i32 @__isoc99_scanf(i8*, ...) #1

declare dso_local i32 @puts(i8*) #1

; Function Attrs: nounwind readonly
declare dso_local i64 @strlen(i8*) #2


!llvm.module.flags = !{!0}
!llvm.ident = !{!1}

!0 = !{i32 1, !"wchar_size", i32 4}
!1 = !{!"clang version 10.0.0-4ubuntu1 "}
